; Function Attrs: mustprogress nofree norecurse nosync nounwind willreturn memory(argmem: readwrite) uwtable
define dso_local void @_ZN4Node16UpdatePhonyMtimeEl(ptr noundef nonnull align 8 captures(none) dereferenceable(116) %0, i64 noundef %1) local_unnamed_addr #1 align 2 {
  %3 = getelementptr inbounds nuw i8, ptr %0, i64 48
  %4 = load i32, ptr %3, align 8, !tbaa !25
  %5 = icmp eq i32 %4, 2
  br i1 %5, label %9, label %6

6:                                                ; preds = %2
  %7 = getelementptr inbounds nuw i8, ptr %0, i64 40
  %8 = load i64, ptr %7, align 8, !tbaa !26
  %.sroa.speculated = tail call i64 @llvm.smax.i64(i64 %8, i64 %1)
  store i64 %.sroa.speculated, ptr %7, align 8, !tbaa !7
  br label %9

9:                                                ; preds = %6, %2
  ret void
}